target datalayout = "e-m:e-p270:32:32-p271:32:32-p272:64:64-i64:64-i128:128-f80:128-n8:16:32:64-S128"
target triple = "x86_64-unknown-linux-gnu"

%struct.__va_list_tag = type { i32, i32, ptr, ptr }

@.str = private unnamed_addr constant [12 x i8] c"%s(%d): %s\0A\00", align 1

; Function Attrs: mustprogress uwtable
define dso_local noundef i32 @_ZN2EA8UnitTest12TestInternal17EATEST_VERIFY_IMPEbRiPKciS4_(i1 noundef zeroext %bExpression, ptr noundef nonnull align 4 dereferenceable(4) %nErrorCount, ptr noundef %pFile, i32 noundef %nLine, ptr noundef %pMessage) #2 {
entry:
  %bExpression.addr = alloca i8, align 1
  %nErrorCount.addr = alloca ptr, align 8
  %pFile.addr = alloca ptr, align 8
  %nLine.addr = alloca i32, align 4
  %pMessage.addr = alloca ptr, align 8
  %frombool = zext i1 %bExpression to i8
  store i8 %frombool, ptr %bExpression.addr, align 1
  store ptr %nErrorCount, ptr %nErrorCount.addr, align 8
  store ptr %pFile, ptr %pFile.addr, align 8
  store i32 %nLine, ptr %nLine.addr, align 4
  store ptr %pMessage, ptr %pMessage.addr, align 8
  %0 = load i8, ptr %bExpression.addr, align 1
  %tobool = trunc i8 %0 to i1
  br i1 %tobool, label %if.end, label %if.then

if.then:                                          ; preds = %entry
  %1 = load ptr, ptr %nErrorCount.addr, align 8
  %2 = load i32, ptr %1, align 4
  %inc = add nsw i32 %2, 1
  store i32 %inc, ptr %1, align 4
  %3 = load ptr, ptr %pFile.addr, align 8
  %4 = load i32, ptr %nLine.addr, align 4
  %5 = load ptr, ptr %pMessage.addr, align 8
  call void (ptr, ...) @_ZN2EA6EAMain6ReportEPKcz(ptr noundef @.str, ptr noundef %3, i32 noundef %4, ptr noundef %5)
  br label %if.end

if.end:                                           ; preds = %if.then, %entry
  %6 = load i8, ptr %bExpression.addr, align 1
  %tobool1 = trunc i8 %6 to i1
  %cond = select i1 %tobool1, i32 0, i32 1
  ret i32 %cond
}

; Function Attrs: mustprogress uwtable
define dso_local noundef i32 @_ZN2EA8UnitTest12TestInternal19EATEST_VERIFY_F_IMPEbRiPKciS4_z(i1 noundef zeroext %bExpression, ptr noundef nonnull align 4 dereferenceable(4) %nErrorCount, ptr noundef %pFile, i32 noundef %nLine, ptr noundef %pFormat, ...) #2 {
entry:
  %bExpression.addr = alloca i8, align 1
  %nErrorCount.addr = alloca ptr, align 8
  %pFile.addr = alloca ptr, align 8
  %nLine.addr = alloca i32, align 4
  %pFormat.addr = alloca ptr, align 8
  %kBufferSize = alloca i32, align 4
  %buffer = alloca [2048 x i8], align 16
  %arguments = alloca [1 x %struct.__va_list_tag], align 16
  %nReturnValue = alloca i32, align 4
  %argumentsSaved = alloca [1 x %struct.__va_list_tag], align 16
  %nExpectedLen = alloca i64, align 8
  %pBuffer = alloca ptr, align 8
  %frombool = zext i1 %bExpression to i8
  store i8 %frombool, ptr %bExpression.addr, align 1
  store ptr %nErrorCount, ptr %nErrorCount.addr, align 8
  store ptr %pFile, ptr %pFile.addr, align 8
  store i32 %nLine, ptr %nLine.addr, align 4
  store ptr %pFormat, ptr %pFormat.addr, align 8
  %0 = load i8, ptr %bExpression.addr, align 1
  %tobool = trunc i8 %0 to i1
  br i1 %tobool, label %if.end29, label %if.then

if.then:                                          ; preds = %entry
  store i32 2048, ptr %kBufferSize, align 4
  %arraydecay = getelementptr inbounds [1 x %struct.__va_list_tag], ptr %arguments, i64 0, i64 0
  call void @llvm.va_start(ptr %arraydecay)
  %arraydecay1 = getelementptr inbounds [2048 x i8], ptr %buffer, i64 0, i64 0
  %1 = load ptr, ptr %pFormat.addr, align 8
  %arraydecay2 = getelementptr inbounds [1 x %struct.__va_list_tag], ptr %arguments, i64 0, i64 0
  %call = call noundef i32 @_ZN2EA4StdC9VsnprintfEPcmPKcP13__va_list_tag(ptr noundef %arraydecay1, i64 noundef 2048, ptr noundef %1, ptr noundef %arraydecay2)
  store i32 %call, ptr %nReturnValue, align 4
  %arraydecay3 = getelementptr inbounds [1 x %struct.__va_list_tag], ptr %argumentsSaved, i64 0, i64 0
  %arraydecay4 = getelementptr inbounds [1 x %struct.__va_list_tag], ptr %arguments, i64 0, i64 0
  call void @llvm.va_copy(ptr %arraydecay3, ptr %arraydecay4)
  %2 = load i32, ptr %nReturnValue, align 4
  %cmp = icmp sge i32 %2, 0
  br i1 %cmp, label %if.then5, label %if.else

if.then5:                                         ; preds = %if.then
  %3 = load i8, ptr %bExpression.addr, align 1
  %tobool6 = trunc i8 %3 to i1
  %4 = load ptr, ptr %nErrorCount.addr, align 8
  %5 = load ptr, ptr %pFile.addr, align 8
  %6 = load i32, ptr %nLine.addr, align 4
  %arraydecay7 = getelementptr inbounds [2048 x i8], ptr %buffer, i64 0, i64 0
  %call8 = call noundef i32 @_ZN2EA8UnitTest12TestInternal17EATEST_VERIFY_IMPEbRiPKciS4_(i1 noundef zeroext %tobool6, ptr noundef nonnull align 4 dereferenceable(4) %4, ptr noundef %5, i32 noundef %6, ptr noundef %arraydecay7)
  br label %if.end26

if.else:                                          ; preds = %if.then
  %arraydecay9 = getelementptr inbounds [2048 x i8], ptr %buffer, i64 0, i64 0
  %7 = load ptr, ptr %pFormat.addr, align 8
  %arraydecay10 = getelementptr inbounds [1 x %struct.__va_list_tag], ptr %arguments, i64 0, i64 0
  %call11 = call noundef i32 @_ZN2EA4StdC9VsnprintfEPcmPKcP13__va_list_tag(ptr noundef %arraydecay9, i64 noundef 0, ptr noundef %7, ptr noundef %arraydecay10)
  %conv = sext i32 %call11 to i64
  store i64 %conv, ptr %nExpectedLen, align 8
  %8 = load i64, ptr %nExpectedLen, align 8
  %add = add i64 %8, 1
  %call12 = call noalias noundef nonnull ptr @_Znam(i64 noundef %add) #14
  store ptr %call12, ptr %pBuffer, align 8
  %9 = load ptr, ptr %pBuffer, align 8
  %tobool13 = icmp ne ptr %9, null
  br i1 %tobool13, label %if.then14, label %if.else23

if.then14:                                        ; preds = %if.else
  %arraydecay15 = getelementptr inbounds [1 x %struct.__va_list_tag], ptr %arguments, i64 0, i64 0
  call void @llvm.va_end(ptr %arraydecay15)
  %arraydecay16 = getelementptr inbounds [1 x %struct.__va_list_tag], ptr %arguments, i64 0, i64 0
  %arraydecay17 = getelementptr inbounds [1 x %struct.__va_list_tag], ptr %argumentsSaved, i64 0, i64 0
  call void @llvm.va_copy(ptr %arraydecay16, ptr %arraydecay17)
  %10 = load ptr, ptr %pBuffer, align 8
  %11 = load i64, ptr %nExpectedLen, align 8
  %add18 = add i64 %11, 1
  %12 = load ptr, ptr %pFormat.addr, align 8
  %arraydecay19 = getelementptr inbounds [1 x %struct.__va_list_tag], ptr %arguments, i64 0, i64 0
  %call20 = call noundef i32 @_ZN2EA4StdC9VsnprintfEPcmPKcP13__va_list_tag(ptr noundef %10, i64 noundef %add18, ptr noundef %12, ptr noundef %arraydecay19)
  %13 = load i8, ptr %bExpression.addr, align 1
  %tobool21 = trunc i8 %13 to i1
  %14 = load ptr, ptr %nErrorCount.addr, align 8
  %15 = load ptr, ptr %pFile.addr, align 8
  %16 = load i32, ptr %nLine.addr, align 4
  %17 = load ptr, ptr %pBuffer, align 8
  %call22 = call noundef i32 @_ZN2EA8UnitTest12TestInternal17EATEST_VERIFY_IMPEbRiPKciS4_(i1 noundef zeroext %tobool21, ptr noundef nonnull align 4 dereferenceable(4) %14, ptr noundef %15, i32 noundef %16, ptr noundef %17)
  %18 = load ptr, ptr %pBuffer, align 8
  %isnull = icmp eq ptr %18, null
  br i1 %isnull, label %delete.end, label %delete.notnull

delete.notnull:                                   ; preds = %if.then14
  call void @_ZdaPv(ptr noundef %18) #15
  br label %delete.end

delete.end:                                       ; preds = %delete.notnull, %if.then14
  br label %if.end

if.else23:                                        ; preds = %if.else
  %19 = load i8, ptr %bExpression.addr, align 1
  %tobool24 = trunc i8 %19 to i1
  %20 = load ptr, ptr %nErrorCount.addr, align 8
  %21 = load ptr, ptr %pFile.addr, align 8
  %22 = load i32, ptr %nLine.addr, align 4
  %23 = load ptr, ptr %pFormat.addr, align 8
  %call25 = call noundef i32 @_ZN2EA8UnitTest12TestInternal17EATEST_VERIFY_IMPEbRiPKciS4_(i1 noundef zeroext %tobool24, ptr noundef nonnull align 4 dereferenceable(4) %20, ptr noundef %21, i32 noundef %22, ptr noundef %23)
  br label %if.end

if.end:                                           ; preds = %if.else23, %delete.end
  br label %if.end26

if.end26:                                         ; preds = %if.end, %if.then5
  %arraydecay27 = getelementptr inbounds [1 x %struct.__va_list_tag], ptr %arguments, i64 0, i64 0
  call void @llvm.va_end(ptr %arraydecay27)
  %arraydecay28 = getelementptr inbounds [1 x %struct.__va_list_tag], ptr %argumentsSaved, i64 0, i64 0
  call void @llvm.va_end(ptr %arraydecay28)
  br label %if.end29

if.end29:                                         ; preds = %if.end26, %entry
  %24 = load i8, ptr %bExpression.addr, align 1
  %tobool30 = trunc i8 %24 to i1
  %cond = select i1 %tobool30, i32 0, i32 1
  ret i32 %cond
}